#include <math.h>
#include <stdio.h>
#include <stdlib.h>
#include <string.h>

int main()
{
	char w[10000];
	int s[10000]={0};
	int b=0,k=0;
	int i;
	int n=0;
	gets(w);
	n=strlen(w);
	for(i=0;w[i]!='\0';i++)
	{
		if(w[i]!=' ')
		{
			s[k]++;
		}
		if((w[i]==' ')&&(w[i+1]!=' '))
		{
			k++;
			b++;
		}
	}
	printf("%d",s[0]);
	for(k=1;k<=b;k++)
	{
	    printf(",%d",s[k]);
	}
	return 0;
}