; ModuleID = 'source-C-CXX/27/838.c'
source_filename = "source-C-CXX/27/838.c"
target datalayout = "e-m:e-p270:32:32-p271:32:32-p272:64:64-i64:64-f80:128-n8:16:32:64-S128"
target triple = "x86_64-pc-linux-gnu"

@.str = private unnamed_addr constant [3 x i8] c"%d\00", align 1
@.str.1 = private unnamed_addr constant [4 x i8] c",%d\00", align 1

; Function Attrs: nounwind sspstrong uwtable
define dso_local i32 @main() local_unnamed_addr #0 {
  %1 = alloca [10000 x i8], align 16
  %2 = alloca [10000 x i32], align 16
  %3 = getelementptr inbounds [10000 x i8], [10000 x i8]* %1, i64 0, i64 0
  call void @llvm.lifetime.start.p0i8(i64 10000, i8* nonnull %3) #5
  %4 = bitcast [10000 x i32]* %2 to i8*
  call void @llvm.lifetime.start.p0i8(i64 40000, i8* nonnull %4) #5
  call void @llvm.memset.p0i8.i64(i8* noundef nonnull align 16 dereferenceable(40000) %4, i8 0, i64 40000, i1 false)
  %5 = call i32 (i8*, ...) bitcast (i32 (...)* @gets to i32 (i8*, ...)*)(i8* nonnull %3) #5
  br label %6

6:                                                ; preds = %27, %0
  %7 = phi i64 [ %23, %27 ], [ 0, %0 ]
  %8 = phi i32 [ %28, %27 ], [ 0, %0 ]
  %9 = phi i32 [ %29, %27 ], [ 0, %0 ]
  %10 = zext i32 %8 to i64
  %11 = getelementptr inbounds [10000 x i32], [10000 x i32]* %2, i64 0, i64 %10
  br label %12

12:                                               ; preds = %20, %6
  %13 = phi i64 [ %7, %6 ], [ %21, %20 ]
  %14 = getelementptr inbounds [10000 x i8], [10000 x i8]* %1, i64 0, i64 %13
  %15 = load i8, i8* %14, align 1, !tbaa !5
  switch i8 %15, label %16 [
    i8 0, label %30
    i8 32, label %22
  ]

16:                                               ; preds = %12
  %17 = load i32, i32* %11, align 4, !tbaa !8
  %18 = add nsw i32 %17, 1
  store i32 %18, i32* %11, align 4, !tbaa !8
  %19 = add nuw i64 %13, 1
  br label %20

20:                                               ; preds = %16, %22
  %21 = phi i64 [ %19, %16 ], [ %23, %22 ]
  br label %12, !llvm.loop !10

22:                                               ; preds = %12
  %23 = add nuw i64 %13, 1
  %24 = getelementptr inbounds [10000 x i8], [10000 x i8]* %1, i64 0, i64 %23
  %25 = load i8, i8* %24, align 1, !tbaa !5
  %26 = icmp eq i8 %25, 32
  br i1 %26, label %20, label %27

27:                                               ; preds = %22
  %28 = add nuw nsw i32 %8, 1
  %29 = add nuw nsw i32 %9, 1
  br label %6, !llvm.loop !10

30:                                               ; preds = %12
  %31 = getelementptr inbounds [10000 x i32], [10000 x i32]* %2, i64 0, i64 0
  %32 = load i32, i32* %31, align 16, !tbaa !8
  %33 = call i32 (i8*, ...) @printf(i8* nonnull dereferenceable(1) getelementptr inbounds ([3 x i8], [3 x i8]* @.str, i64 0, i64 0), i32 %32)
  %34 = icmp eq i32 %9, 0
  br i1 %34, label %45, label %35

35:                                               ; preds = %30
  %36 = add nuw i32 %9, 1
  %37 = zext i32 %36 to i64
  br label %38

38:                                               ; preds = %35, %38
  %39 = phi i64 [ 1, %35 ], [ %43, %38 ]
  %40 = getelementptr inbounds [10000 x i32], [10000 x i32]* %2, i64 0, i64 %39
  %41 = load i32, i32* %40, align 4, !tbaa !8
  %42 = call i32 (i8*, ...) @printf(i8* nonnull dereferenceable(1) getelementptr inbounds ([4 x i8], [4 x i8]* @.str.1, i64 0, i64 0), i32 %41)
  %43 = add nuw nsw i64 %39, 1
  %44 = icmp eq i64 %43, %37
  br i1 %44, label %45, label %38, !llvm.loop !12

45:                                               ; preds = %38, %30
  call void @llvm.lifetime.end.p0i8(i64 40000, i8* nonnull %4) #5
  call void @llvm.lifetime.end.p0i8(i64 10000, i8* nonnull %3) #5
  ret i32 0
}

; Function Attrs: argmemonly mustprogress nofree nosync nounwind willreturn
declare void @llvm.lifetime.start.p0i8(i64 immarg, i8* nocapture) #1

; Function Attrs: argmemonly mustprogress nofree nounwind willreturn writeonly
declare void @llvm.memset.p0i8.i64(i8* nocapture writeonly, i8, i64, i1 immarg) #2

declare i32 @gets(...) local_unnamed_addr #3

; Function Attrs: nofree nounwind
declare noundef i32 @printf(i8* nocapture noundef readonly, ...) local_unnamed_addr #4

; Function Attrs: argmemonly mustprogress nofree nosync nounwind willreturn
declare void @llvm.lifetime.end.p0i8(i64 immarg, i8* nocapture) #1


!llvm.module.flags = !{!0, !1, !2, !3}
!llvm.ident = !{!4}

!0 = !{i32 1, !"wchar_size", i32 4}
!1 = !{i32 7, !"PIC Level", i32 2}
!2 = !{i32 7, !"PIE Level", i32 2}
!3 = !{i32 7, !"uwtable", i32 1}
!4 = !{!"clang version 13.0.0"}
!5 = !{!6, !6, i64 0}
!6 = !{!"omnipotent char", !7, i64 0}
!7 = !{!"Simple C/C++ TBAA"}
!8 = !{!9, !9, i64 0}
!9 = !{!"int", !6, i64 0}
!10 = distinct !{!10, !11}
!11 = !{!"llvm.loop.mustprogress"}
!12 = distinct !{!12, !11}
